; Function Attrs: nounwind uwtable
define ptr @l_Lean_unresolveNameGlobal_unresolveNameCore___rarg___lambda__2(ptr noundef %0, ptr noundef %1, ptr noundef %2, ptr noundef %3, ptr noundef %4, ptr noundef %5, ptr readnone captures(none) %6) local_unnamed_addr #1 {
  %8 = tail call ptr @l_Lean_Name_componentsRev(ptr noundef %0) #6
  %9 = getelementptr inbounds nuw i8, ptr %1, i64 16
  %10 = load ptr, ptr %9, align 8, !tbaa !9
  %11 = ptrtoint ptr %10 to i64
  %12 = and i64 %11, 1
  %.not = icmp eq i64 %12, 0
  br i1 %.not, label %13, label %lean_inc.exit31

13:                                               ; preds = %7
  %.val.i = load i32, ptr %10, align 4, !tbaa !4
  %14 = icmp sgt i32 %.val.i, 0
  br i1 %14, label %15, label %17, !prof !11

15:                                               ; preds = %13
  %16 = add nuw i32 %.val.i, 1
  store i32 %16, ptr %10, align 4, !tbaa !4
  br label %21

17:                                               ; preds = %13
  %.not.i = icmp eq i32 %.val.i, 0
  br i1 %.not.i, label %.thread44, label %19

.thread44:                                        ; preds = %17
  %18 = load ptr, ptr @l_Lean_unresolveNameGlobal_unresolveNameCore___rarg___lambda__2___closed__1, align 8, !tbaa !9
  br label %lean_inc.exit30

19:                                               ; preds = %17
  tail call void @lean_inc_ref_cold(ptr noundef nonnull %10) #6
  %.val.i32.pr = load i32, ptr %10, align 4, !tbaa !4
  br label %21

lean_inc.exit31:                                  ; preds = %7
  %20 = load ptr, ptr @l_Lean_unresolveNameGlobal_unresolveNameCore___rarg___lambda__2___closed__1, align 8, !tbaa !9
  br label %lean_inc.exit30

21:                                               ; preds = %19, %15
  %.val.i32 = phi i32 [ %.val.i32.pr, %19 ], [ %16, %15 ]
  %22 = load ptr, ptr @l_Lean_unresolveNameGlobal_unresolveNameCore___rarg___lambda__2___closed__1, align 8, !tbaa !9
  %23 = icmp sgt i32 %.val.i32, 0
  br i1 %23, label %24, label %26, !prof !16

24:                                               ; preds = %21
  %25 = add nuw i32 %.val.i32, 1
  store i32 %25, ptr %10, align 4, !tbaa !4
  br label %lean_inc.exit30

26:                                               ; preds = %21
  %.not.i33 = icmp eq i32 %.val.i32, 0
  br i1 %.not.i33, label %lean_inc.exit30, label %27

27:                                               ; preds = %26
  tail call void @lean_inc_ref_cold(ptr noundef nonnull %10) #6
  br label %lean_inc.exit30

lean_inc.exit30:                                  ; preds = %27, %26, %24, %.thread44, %lean_inc.exit31
  %28 = phi ptr [ %20, %lean_inc.exit31 ], [ %22, %24 ], [ %22, %26 ], [ %22, %27 ], [ %18, %.thread44 ]
  %29 = ptrtoint ptr %8 to i64
  %30 = and i64 %29, 1
  %.not.i35 = icmp eq i64 %30, 0
  br i1 %.not.i35, label %31, label %lean_inc_n.exit

31:                                               ; preds = %lean_inc.exit30
  %.val.i.i = load i32, ptr %8, align 4, !tbaa !4
  %32 = icmp sgt i32 %.val.i.i, 0
  br i1 %32, label %33, label %35, !prof !11

33:                                               ; preds = %31
  %34 = add nuw i32 %.val.i.i, 2
  store i32 %34, ptr %8, align 4, !tbaa !4
  br label %lean_inc_n.exit

35:                                               ; preds = %31
  %.not.i.i = icmp eq i32 %.val.i.i, 0
  br i1 %.not.i.i, label %lean_inc_n.exit, label %36

36:                                               ; preds = %35
  tail call void @lean_inc_ref_n_cold(ptr noundef nonnull %8, i32 noundef 2) #6
  br label %lean_inc_n.exit

lean_inc_n.exit:                                  ; preds = %lean_inc.exit30, %33, %35, %36
  %37 = ptrtoint ptr %1 to i64
  %38 = and i64 %37, 1
  %.not47 = icmp eq i64 %38, 0
  br i1 %.not47, label %39, label %lean_inc.exit29

39:                                               ; preds = %lean_inc_n.exit
  %.val.i36 = load i32, ptr %1, align 4, !tbaa !4
  %40 = icmp sgt i32 %.val.i36, 0
  br i1 %40, label %41, label %43, !prof !11

41:                                               ; preds = %39
  %42 = add nuw i32 %.val.i36, 1
  store i32 %42, ptr %1, align 4, !tbaa !4
  br label %lean_inc.exit29

43:                                               ; preds = %39
  %.not.i37 = icmp eq i32 %.val.i36, 0
  br i1 %.not.i37, label %lean_inc.exit29, label %44

44:                                               ; preds = %43
  tail call void @lean_inc_ref_cold(ptr noundef nonnull %1) #6
  br label %lean_inc.exit29

lean_inc.exit29:                                  ; preds = %44, %43, %41, %lean_inc_n.exit
  %45 = tail call ptr @l_List_forIn_x27_loop___at_Lean_unresolveNameGlobal_unresolveNameCore___spec__1___rarg(ptr noundef nonnull %1, ptr noundef %2, ptr noundef %3, ptr noundef %4, ptr noundef %5, ptr noundef %8, ptr noundef %10, ptr noundef nonnull inttoptr (i64 1 to ptr), ptr noundef nonnull inttoptr (i64 1 to ptr), ptr noundef %8, ptr noundef %8, ptr noundef %28, ptr nonnull poison)
  br i1 %.not, label %46, label %lean_inc.exit

46:                                               ; preds = %lean_inc.exit29
  %.val.i39 = load i32, ptr %10, align 4, !tbaa !4
  %47 = icmp sgt i32 %.val.i39, 0
  br i1 %47, label %48, label %50, !prof !11

48:                                               ; preds = %46
  %49 = add nuw i32 %.val.i39, 1
  store i32 %49, ptr %10, align 4, !tbaa !4
  br label %lean_inc.exit

50:                                               ; preds = %46
  %.not.i40 = icmp eq i32 %.val.i39, 0
  br i1 %.not.i40, label %lean_inc.exit, label %51

51:                                               ; preds = %50
  tail call void @lean_inc_ref_cold(ptr noundef nonnull %10) #6
  br label %lean_inc.exit

lean_inc.exit:                                    ; preds = %51, %50, %48, %lean_inc.exit29
  tail call void @lean_inc_heartbeat() #6
  %52 = tail call noalias ptr @mi_malloc_small(i64 noundef 48) #6
  %53 = icmp eq ptr %52, null
  br i1 %53, label %54, label %lean_alloc_closure.exit

54:                                               ; preds = %lean_inc.exit
  tail call void @lean_internal_panic_out_of_memory() #7
  unreachable

lean_alloc_closure.exit:                          ; preds = %lean_inc.exit
  %55 = getelementptr inbounds nuw i8, ptr %52, i64 4
  store i32 1, ptr %52, align 4, !tbaa !4
  store i32 -184549328, ptr %55, align 4
  %56 = getelementptr inbounds nuw i8, ptr %52, i64 8
  store ptr @l_Lean_unresolveNameGlobal_unresolveNameCore___rarg___lambda__1, ptr %56, align 8, !tbaa !9
  %57 = getelementptr inbounds nuw i8, ptr %52, i64 16
  store i16 4, ptr %57, align 8, !tbaa !14
  %58 = getelementptr inbounds nuw i8, ptr %52, i64 18
  store i16 3, ptr %58, align 2, !tbaa !14
  %59 = getelementptr inbounds nuw i8, ptr %52, i64 24
  store ptr %1, ptr %59, align 8, !tbaa !9
  %60 = getelementptr inbounds nuw i8, ptr %52, i64 32
  store ptr inttoptr (i64 1 to ptr), ptr %60, align 8, !tbaa !9
  %61 = getelementptr inbounds nuw i8, ptr %52, i64 40
  store ptr %10, ptr %61, align 8, !tbaa !9
  %62 = tail call ptr @lean_apply_4(ptr noundef %10, ptr noundef nonnull inttoptr (i64 1 to ptr), ptr noundef nonnull inttoptr (i64 1 to ptr), ptr noundef %45, ptr noundef nonnull %52) #6
  ret ptr %62
}